target datalayout = "e-m:e-p270:32:32-p271:32:32-p272:64:64-i64:64-i128:128-f80:128-n8:16:32:64-S128"
target triple = "x86_64-pc-linux-gnu"

%struct.AVFilterContext = type { ptr, ptr, ptr, ptr, ptr, i32, ptr, ptr, i32, ptr, ptr, i32, i32, ptr, ptr, ptr, ptr, i32, ptr, i32, i32 }
%struct.PSNRContext = type { ptr, %struct.FFFrameSync, double, double, double, [4 x double], i64, ptr, ptr, i32, i32, i32, [4 x i32], i32, i32, [4 x i8], [4 x i8], i32, i32, [4 x i32], [4 x i32], [4 x double], ptr, %struct.PSNRDSPContext }
%struct.FFFrameSync = type { ptr, ptr, i32, %struct.AVRational, i64, ptr, ptr, i32, i32, i8, i8, ptr, i32, i32, i32, i32 }
%struct.AVRational = type { i32, i32 }
%struct.PSNRDSPContext = type { ptr }
%struct.AVFilterLink = type { ptr, ptr, ptr, ptr, i32, i32, i32, i32, %struct.AVRational, i32, i32, i32, %struct.AVChannelLayout, %struct.AVRational, ptr, i32, %struct.AVFilterFormatsConfig, %struct.AVFilterFormatsConfig }
%struct.AVChannelLayout = type { i32, i32, %union.anon.1, ptr }
%union.anon.1 = type { i64 }
%struct.AVFilterFormatsConfig = type { ptr, ptr, ptr, ptr, ptr }
%struct.FilterLink = type { %struct.AVFilterLink, ptr, i64, i64, i32, i32, i64, i64, i64, i64, %struct.AVRational, ptr }

@.str.6 = private unnamed_addr constant [107 x i8] c"not matching timebases found between first input: %d/%d and second input %d/%d, results may be incorrect!\0A\00", align 1

; Function Attrs: inlinehint nounwind uwtable
define internal i32 @av_cmp_q(i64 %0, i64 %1) #7 {
  %3 = alloca i32, align 4
  %4 = alloca %struct.AVRational, align 4
  %5 = alloca %struct.AVRational, align 4
  %6 = alloca i64, align 8
  %7 = alloca i32, align 4
  store i64 %0, ptr %4, align 4
  store i64 %1, ptr %5, align 4
  call void @llvm.lifetime.start.p0(i64 8, ptr %6) #12
  %8 = getelementptr inbounds nuw %struct.AVRational, ptr %4, i32 0, i32 0
  %9 = load i32, ptr %8, align 4, !tbaa !86
  %10 = sext i32 %9 to i64
  %11 = getelementptr inbounds nuw %struct.AVRational, ptr %5, i32 0, i32 1
  %12 = load i32, ptr %11, align 4, !tbaa !87
  %13 = sext i32 %12 to i64
  %14 = mul nsw i64 %10, %13
  %15 = getelementptr inbounds nuw %struct.AVRational, ptr %5, i32 0, i32 0
  %16 = load i32, ptr %15, align 4, !tbaa !86
  %17 = sext i32 %16 to i64
  %18 = getelementptr inbounds nuw %struct.AVRational, ptr %4, i32 0, i32 1
  %19 = load i32, ptr %18, align 4, !tbaa !87
  %20 = sext i32 %19 to i64
  %21 = mul nsw i64 %17, %20
  %22 = sub nsw i64 %14, %21
  store i64 %22, ptr %6, align 8, !tbaa !88
  %23 = load i64, ptr %6, align 8, !tbaa !88
  %24 = icmp ne i64 %23, 0
  br i1 %24, label %25, label %38

25:                                               ; preds = %2
  %26 = load i64, ptr %6, align 8, !tbaa !88
  %27 = getelementptr inbounds nuw %struct.AVRational, ptr %4, i32 0, i32 1
  %28 = load i32, ptr %27, align 4, !tbaa !87
  %29 = sext i32 %28 to i64
  %30 = xor i64 %26, %29
  %31 = getelementptr inbounds nuw %struct.AVRational, ptr %5, i32 0, i32 1
  %32 = load i32, ptr %31, align 4, !tbaa !87
  %33 = sext i32 %32 to i64
  %34 = xor i64 %30, %33
  %35 = ashr i64 %34, 63
  %36 = trunc i64 %35 to i32
  %37 = or i32 %36, 1
  store i32 %37, ptr %3, align 4
  store i32 1, ptr %7, align 4
  br label %64

38:                                               ; preds = %2
  %39 = getelementptr inbounds nuw %struct.AVRational, ptr %5, i32 0, i32 1
  %40 = load i32, ptr %39, align 4, !tbaa !87
  %41 = icmp ne i32 %40, 0
  br i1 %41, label %42, label %47

42:                                               ; preds = %38
  %43 = getelementptr inbounds nuw %struct.AVRational, ptr %4, i32 0, i32 1
  %44 = load i32, ptr %43, align 4, !tbaa !87
  %45 = icmp ne i32 %44, 0
  br i1 %45, label %46, label %47

46:                                               ; preds = %42
  store i32 0, ptr %3, align 4
  store i32 1, ptr %7, align 4
  br label %64

47:                                               ; preds = %42, %38
  %48 = getelementptr inbounds nuw %struct.AVRational, ptr %4, i32 0, i32 0
  %49 = load i32, ptr %48, align 4, !tbaa !86
  %50 = icmp ne i32 %49, 0
  br i1 %50, label %51, label %63

51:                                               ; preds = %47
  %52 = getelementptr inbounds nuw %struct.AVRational, ptr %5, i32 0, i32 0
  %53 = load i32, ptr %52, align 4, !tbaa !86
  %54 = icmp ne i32 %53, 0
  br i1 %54, label %55, label %63

55:                                               ; preds = %51
  %56 = getelementptr inbounds nuw %struct.AVRational, ptr %4, i32 0, i32 0
  %57 = load i32, ptr %56, align 4, !tbaa !86
  %58 = ashr i32 %57, 31
  %59 = getelementptr inbounds nuw %struct.AVRational, ptr %5, i32 0, i32 0
  %60 = load i32, ptr %59, align 4, !tbaa !86
  %61 = ashr i32 %60, 31
  %62 = sub nsw i32 %58, %61
  store i32 %62, ptr %3, align 4
  store i32 1, ptr %7, align 4
  br label %64

63:                                               ; preds = %51, %47
  store i32 -2147483648, ptr %3, align 4
  store i32 1, ptr %7, align 4
  br label %64

64:                                               ; preds = %63, %55, %46, %25
  call void @llvm.lifetime.end.p0(i64 8, ptr %6) #12
  %65 = load i32, ptr %3, align 4
  ret i32 %65
}

; Function Attrs: inlinehint nounwind uwtable
define internal ptr @ff_filter_link(ptr noundef %0) #7 {
  %2 = alloca ptr, align 8
  store ptr %0, ptr %2, align 8, !tbaa !54
  %3 = load ptr, ptr %2, align 8, !tbaa !54
  ret ptr %3
}

; Function Attrs: nounwind uwtable
define internal i32 @config_output(ptr noundef %0) #0 {
  %2 = alloca i32, align 4
  %3 = alloca ptr, align 8
  %4 = alloca ptr, align 8
  %5 = alloca ptr, align 8
  %6 = alloca ptr, align 8
  %7 = alloca ptr, align 8
  %8 = alloca ptr, align 8
  %9 = alloca i32, align 4
  %10 = alloca i32, align 4
  store ptr %0, ptr %3, align 8, !tbaa !54
  call void @llvm.lifetime.start.p0(i64 8, ptr %4) #12
  %11 = load ptr, ptr %3, align 8, !tbaa !54
  %12 = getelementptr inbounds nuw %struct.AVFilterLink, ptr %11, i32 0, i32 0
  %13 = load ptr, ptr %12, align 8, !tbaa !80
  store ptr %13, ptr %4, align 8, !tbaa !4
  call void @llvm.lifetime.start.p0(i64 8, ptr %5) #12
  %14 = load ptr, ptr %4, align 8, !tbaa !4
  %15 = getelementptr inbounds nuw %struct.AVFilterContext, ptr %14, i32 0, i32 9
  %16 = load ptr, ptr %15, align 8, !tbaa !9
  store ptr %16, ptr %5, align 8, !tbaa !22
  call void @llvm.lifetime.start.p0(i64 8, ptr %6) #12
  %17 = load ptr, ptr %4, align 8, !tbaa !4
  %18 = getelementptr inbounds nuw %struct.AVFilterContext, ptr %17, i32 0, i32 4
  %19 = load ptr, ptr %18, align 8, !tbaa !68
  %20 = getelementptr inbounds ptr, ptr %19, i64 0
  %21 = load ptr, ptr %20, align 8, !tbaa !54
  store ptr %21, ptr %6, align 8, !tbaa !54
  call void @llvm.lifetime.start.p0(i64 8, ptr %7) #12
  %22 = load ptr, ptr %6, align 8, !tbaa !54
  %23 = call ptr @ff_filter_link(ptr noundef %22)
  store ptr %23, ptr %7, align 8, !tbaa !81
  call void @llvm.lifetime.start.p0(i64 8, ptr %8) #12
  %24 = load ptr, ptr %3, align 8, !tbaa !54
  %25 = call ptr @ff_filter_link(ptr noundef %24)
  store ptr %25, ptr %8, align 8, !tbaa !81
  call void @llvm.lifetime.start.p0(i64 4, ptr %9) #12
  %26 = load ptr, ptr %5, align 8, !tbaa !22
  %27 = getelementptr inbounds nuw %struct.PSNRContext, ptr %26, i32 0, i32 1
  %28 = load ptr, ptr %4, align 8, !tbaa !4
  %29 = call i32 @ff_framesync_init_dualinput(ptr noundef %27, ptr noundef %28)
  store i32 %29, ptr %9, align 4, !tbaa !40
  %30 = load i32, ptr %9, align 4, !tbaa !40
  %31 = icmp slt i32 %30, 0
  br i1 %31, label %32, label %34

32:                                               ; preds = %1
  %33 = load i32, ptr %9, align 4, !tbaa !40
  store i32 %33, ptr %2, align 4
  store i32 1, ptr %10, align 4
  br label %117

34:                                               ; preds = %1
  %35 = load ptr, ptr %6, align 8, !tbaa !54
  %36 = getelementptr inbounds nuw %struct.AVFilterLink, ptr %35, i32 0, i32 6
  %37 = load i32, ptr %36, align 8, !tbaa !69
  %38 = load ptr, ptr %3, align 8, !tbaa !54
  %39 = getelementptr inbounds nuw %struct.AVFilterLink, ptr %38, i32 0, i32 6
  store i32 %37, ptr %39, align 8, !tbaa !69
  %40 = load ptr, ptr %6, align 8, !tbaa !54
  %41 = getelementptr inbounds nuw %struct.AVFilterLink, ptr %40, i32 0, i32 7
  %42 = load i32, ptr %41, align 4, !tbaa !70
  %43 = load ptr, ptr %3, align 8, !tbaa !54
  %44 = getelementptr inbounds nuw %struct.AVFilterLink, ptr %43, i32 0, i32 7
  store i32 %42, ptr %44, align 4, !tbaa !70
  %45 = load ptr, ptr %3, align 8, !tbaa !54
  %46 = getelementptr inbounds nuw %struct.AVFilterLink, ptr %45, i32 0, i32 13
  %47 = load ptr, ptr %6, align 8, !tbaa !54
  %48 = getelementptr inbounds nuw %struct.AVFilterLink, ptr %47, i32 0, i32 13
  call void @llvm.memcpy.p0.p0.i64(ptr align 8 %46, ptr align 8 %48, i64 8, i1 false), !tbaa.struct !83
  %49 = load ptr, ptr %3, align 8, !tbaa !54
  %50 = getelementptr inbounds nuw %struct.AVFilterLink, ptr %49, i32 0, i32 8
  %51 = load ptr, ptr %6, align 8, !tbaa !54
  %52 = getelementptr inbounds nuw %struct.AVFilterLink, ptr %51, i32 0, i32 8
  call void @llvm.memcpy.p0.p0.i64(ptr align 8 %50, ptr align 8 %52, i64 8, i1 false), !tbaa.struct !83
  %53 = load ptr, ptr %8, align 8, !tbaa !81
  %54 = getelementptr inbounds nuw %struct.FilterLink, ptr %53, i32 0, i32 10
  %55 = load ptr, ptr %7, align 8, !tbaa !81
  %56 = getelementptr inbounds nuw %struct.FilterLink, ptr %55, i32 0, i32 10
  call void @llvm.memcpy.p0.p0.i64(ptr align 8 %54, ptr align 8 %56, i64 8, i1 false), !tbaa.struct !83
  %57 = load ptr, ptr %5, align 8, !tbaa !22
  %58 = getelementptr inbounds nuw %struct.PSNRContext, ptr %57, i32 0, i32 1
  %59 = call i32 @ff_framesync_configure(ptr noundef %58)
  store i32 %59, ptr %9, align 4, !tbaa !40
  %60 = icmp slt i32 %59, 0
  br i1 %60, label %61, label %63

61:                                               ; preds = %34
  %62 = load i32, ptr %9, align 4, !tbaa !40
  store i32 %62, ptr %2, align 4
  store i32 1, ptr %10, align 4
  br label %117

63:                                               ; preds = %34
  %64 = load ptr, ptr %3, align 8, !tbaa !54
  %65 = getelementptr inbounds nuw %struct.AVFilterLink, ptr %64, i32 0, i32 13
  %66 = load ptr, ptr %5, align 8, !tbaa !22
  %67 = getelementptr inbounds nuw %struct.PSNRContext, ptr %66, i32 0, i32 1
  %68 = getelementptr inbounds nuw %struct.FFFrameSync, ptr %67, i32 0, i32 3
  call void @llvm.memcpy.p0.p0.i64(ptr align 8 %65, ptr align 4 %68, i64 8, i1 false), !tbaa.struct !83
  %69 = load ptr, ptr %6, align 8, !tbaa !54
  %70 = getelementptr inbounds nuw %struct.AVFilterLink, ptr %69, i32 0, i32 13
  %71 = load ptr, ptr %3, align 8, !tbaa !54
  %72 = getelementptr inbounds nuw %struct.AVFilterLink, ptr %71, i32 0, i32 13
  %73 = load i64, ptr %70, align 8
  %74 = load i64, ptr %72, align 8
  %75 = call i32 @av_cmp_q(i64 %73, i64 %74)
  %76 = icmp ne i32 %75, 0
  br i1 %76, label %90, label %77

77:                                               ; preds = %63
  %78 = load ptr, ptr %4, align 8, !tbaa !4
  %79 = getelementptr inbounds nuw %struct.AVFilterContext, ptr %78, i32 0, i32 4
  %80 = load ptr, ptr %79, align 8, !tbaa !68
  %81 = getelementptr inbounds ptr, ptr %80, i64 1
  %82 = load ptr, ptr %81, align 8, !tbaa !54
  %83 = getelementptr inbounds nuw %struct.AVFilterLink, ptr %82, i32 0, i32 13
  %84 = load ptr, ptr %3, align 8, !tbaa !54
  %85 = getelementptr inbounds nuw %struct.AVFilterLink, ptr %84, i32 0, i32 13
  %86 = load i64, ptr %83, align 8
  %87 = load i64, ptr %85, align 8
  %88 = call i32 @av_cmp_q(i64 %86, i64 %87)
  %89 = icmp ne i32 %88, 0
  br i1 %89, label %90, label %116

90:                                               ; preds = %77, %63
  %91 = load ptr, ptr %4, align 8, !tbaa !4
  %92 = load ptr, ptr %6, align 8, !tbaa !54
  %93 = getelementptr inbounds nuw %struct.AVFilterLink, ptr %92, i32 0, i32 13
  %94 = getelementptr inbounds nuw %struct.AVRational, ptr %93, i32 0, i32 0
  %95 = load i32, ptr %94, align 8, !tbaa !84
  %96 = load ptr, ptr %6, align 8, !tbaa !54
  %97 = getelementptr inbounds nuw %struct.AVFilterLink, ptr %96, i32 0, i32 13
  %98 = getelementptr inbounds nuw %struct.AVRational, ptr %97, i32 0, i32 1
  %99 = load i32, ptr %98, align 4, !tbaa !85
  %100 = load ptr, ptr %4, align 8, !tbaa !4
  %101 = getelementptr inbounds nuw %struct.AVFilterContext, ptr %100, i32 0, i32 4
  %102 = load ptr, ptr %101, align 8, !tbaa !68
  %103 = getelementptr inbounds ptr, ptr %102, i64 1
  %104 = load ptr, ptr %103, align 8, !tbaa !54
  %105 = getelementptr inbounds nuw %struct.AVFilterLink, ptr %104, i32 0, i32 13
  %106 = getelementptr inbounds nuw %struct.AVRational, ptr %105, i32 0, i32 0
  %107 = load i32, ptr %106, align 8, !tbaa !84
  %108 = load ptr, ptr %4, align 8, !tbaa !4
  %109 = getelementptr inbounds nuw %struct.AVFilterContext, ptr %108, i32 0, i32 4
  %110 = load ptr, ptr %109, align 8, !tbaa !68
  %111 = getelementptr inbounds ptr, ptr %110, i64 1
  %112 = load ptr, ptr %111, align 8, !tbaa !54
  %113 = getelementptr inbounds nuw %struct.AVFilterLink, ptr %112, i32 0, i32 13
  %114 = getelementptr inbounds nuw %struct.AVRational, ptr %113, i32 0, i32 1
  %115 = load i32, ptr %114, align 4, !tbaa !85
  call void (ptr, i32, ptr, ...) @av_log(ptr noundef %91, i32 noundef 24, ptr noundef @.str.6, i32 noundef %95, i32 noundef %99, i32 noundef %107, i32 noundef %115)
  br label %116

116:                                              ; preds = %90, %77
  store i32 0, ptr %2, align 4
  store i32 1, ptr %10, align 4
  br label %117

117:                                              ; preds = %116, %61, %32
  call void @llvm.lifetime.end.p0(i64 4, ptr %9) #12
  call void @llvm.lifetime.end.p0(i64 8, ptr %8) #12
  call void @llvm.lifetime.end.p0(i64 8, ptr %7) #12
  call void @llvm.lifetime.end.p0(i64 8, ptr %6) #12
  call void @llvm.lifetime.end.p0(i64 8, ptr %5) #12
  call void @llvm.lifetime.end.p0(i64 8, ptr %4) #12
  %118 = load i32, ptr %2, align 4
  ret i32 %118
}